; Function Attrs: mustprogress nofree norecurse nosync nounwind willreturn memory(argmem: read) uwtable
define hidden zeroext i1 @rose_ctx_check_signature(ptr noundef readonly %0) local_unnamed_addr #2 {
  %.not = icmp eq ptr %0, null
  br i1 %.not, label %5, label %2

2:                                                ; preds = %1
  %3 = load i32, ptr %0, align 8
  %4 = icmp eq i32 %3, 1380930373
  br label %5

5:                                                ; preds = %2, %1
  %6 = phi i1 [ false, %1 ], [ %4, %2 ]
  ret i1 %6
}